target datalayout = "e-m:e-p270:32:32-p271:32:32-p272:64:64-i64:64-i128:128-f80:128-n8:16:32:64-S128"
target triple = "x86_64-pc-linux-gnu"

%struct.wc_Sha512 = type { [8 x i64], [16 x i64], i32, i64, i64, ptr }

; Function Attrs: inlinehint nounwind uwtable
define internal i64 @rotlFixed64(i64 noundef %0, i64 noundef %1) #1 {
  %3 = alloca i64, align 8
  %4 = alloca i64, align 8
  store i64 %0, ptr %3, align 8, !tbaa !14
  store i64 %1, ptr %4, align 8, !tbaa !14
  %5 = load i64, ptr %3, align 8, !tbaa !14
  %6 = load i64, ptr %4, align 8, !tbaa !14
  %7 = shl i64 %5, %6
  %8 = load i64, ptr %3, align 8, !tbaa !14
  %9 = load i64, ptr %4, align 8, !tbaa !14
  %10 = sub i64 64, %9
  %11 = lshr i64 %8, %10
  %12 = or i64 %7, %11
  ret i64 %12
}

; Function Attrs: inlinehint nounwind uwtable
define internal i64 @ByteReverseWord64(i64 noundef %0) #1 {
  %2 = alloca i64, align 8
  store i64 %0, ptr %2, align 8, !tbaa !14
  %3 = load i64, ptr %2, align 8, !tbaa !14
  %4 = and i64 %3, -71777214294589696
  %5 = lshr i64 %4, 8
  %6 = load i64, ptr %2, align 8, !tbaa !14
  %7 = and i64 %6, 71777214294589695
  %8 = shl i64 %7, 8
  %9 = or i64 %5, %8
  store i64 %9, ptr %2, align 8, !tbaa !14
  %10 = load i64, ptr %2, align 8, !tbaa !14
  %11 = and i64 %10, -281470681808896
  %12 = lshr i64 %11, 16
  %13 = load i64, ptr %2, align 8, !tbaa !14
  %14 = and i64 %13, 281470681808895
  %15 = shl i64 %14, 16
  %16 = or i64 %12, %15
  store i64 %16, ptr %2, align 8, !tbaa !14
  %17 = load i64, ptr %2, align 8, !tbaa !14
  %18 = call i64 @rotlFixed64(i64 noundef %17, i64 noundef 32)
  ret i64 %18
}

; Function Attrs: inlinehint nounwind uwtable
define internal i32 @ctMaskWord32GTE(i32 noundef %0, i32 noundef %1) #1 {
  %3 = alloca i32, align 4
  %4 = alloca i32, align 4
  store i32 %0, ptr %3, align 4, !tbaa !9
  store i32 %1, ptr %4, align 4, !tbaa !9
  %5 = load i32, ptr %3, align 4, !tbaa !9
  %6 = zext i32 %5 to i64
  %7 = load i32, ptr %4, align 4, !tbaa !9
  %8 = zext i32 %7 to i64
  %9 = sub i64 %6, %8
  %10 = lshr i64 %9, 63
  %11 = sub i64 %10, 1
  %12 = trunc i64 %11 to i32
  ret i32 %12
}

; Function Attrs: inlinehint nounwind uwtable
define internal void @ByteReverseWords64(ptr noundef %0, ptr noundef %1, i32 noundef %2) #1 {
  %4 = alloca ptr, align 8
  %5 = alloca ptr, align 8
  %6 = alloca i32, align 4
  %7 = alloca i32, align 4
  %8 = alloca i32, align 4
  store ptr %0, ptr %4, align 8, !tbaa !24
  store ptr %1, ptr %5, align 8, !tbaa !24
  store i32 %2, ptr %6, align 4, !tbaa !9
  call void @llvm.lifetime.start.p0(i64 4, ptr %7) #5
  %9 = load i32, ptr %6, align 4, !tbaa !9
  %10 = udiv i32 %9, 8
  store i32 %10, ptr %7, align 4, !tbaa !9
  call void @llvm.lifetime.start.p0(i64 4, ptr %8) #5
  store i32 0, ptr %8, align 4, !tbaa !9
  br label %11

11:                                               ; preds = %26, %3
  %12 = load i32, ptr %8, align 4, !tbaa !9
  %13 = load i32, ptr %7, align 4, !tbaa !9
  %14 = icmp ult i32 %12, %13
  br i1 %14, label %15, label %29

15:                                               ; preds = %11
  %16 = load ptr, ptr %5, align 8, !tbaa !24
  %17 = load i32, ptr %8, align 4, !tbaa !9
  %18 = zext i32 %17 to i64
  %19 = getelementptr inbounds nuw i64, ptr %16, i64 %18
  %20 = load i64, ptr %19, align 8, !tbaa !14
  %21 = call i64 @ByteReverseWord64(i64 noundef %20)
  %22 = load ptr, ptr %4, align 8, !tbaa !24
  %23 = load i32, ptr %8, align 4, !tbaa !9
  %24 = zext i32 %23 to i64
  %25 = getelementptr inbounds nuw i64, ptr %22, i64 %24
  store i64 %21, ptr %25, align 8, !tbaa !14
  br label %26

26:                                               ; preds = %15
  %27 = load i32, ptr %8, align 4, !tbaa !9
  %28 = add i32 %27, 1
  store i32 %28, ptr %8, align 4, !tbaa !9
  br label %11, !llvm.loop !28

29:                                               ; preds = %11
  call void @llvm.lifetime.end.p0(i64 4, ptr %8) #5
  call void @llvm.lifetime.end.p0(i64 4, ptr %7) #5
  ret void
}

; Function Attrs: inlinehint nounwind uwtable
define internal i32 @min(i32 noundef %0, i32 noundef %1) #1 {
  %3 = alloca i32, align 4
  %4 = alloca i32, align 4
  %5 = alloca i32, align 4
  store i32 %0, ptr %3, align 4, !tbaa !9
  store i32 %1, ptr %4, align 4, !tbaa !9
  call void @llvm.lifetime.start.p0(i64 4, ptr %5) #5
  %6 = load i32, ptr %3, align 4, !tbaa !9
  %7 = load i32, ptr %4, align 4, !tbaa !9
  %8 = call i32 @ctMaskWord32GTE(i32 noundef %6, i32 noundef %7)
  store i32 %8, ptr %5, align 4, !tbaa !9
  %9 = load i32, ptr %3, align 4, !tbaa !9
  %10 = load i32, ptr %5, align 4, !tbaa !9
  %11 = xor i32 %10, -1
  %12 = and i32 %9, %11
  %13 = load i32, ptr %4, align 4, !tbaa !9
  %14 = load i32, ptr %5, align 4, !tbaa !9
  %15 = and i32 %13, %14
  %16 = or i32 %12, %15
  call void @llvm.lifetime.end.p0(i64 4, ptr %5) #5
  ret i32 %16
}

; Function Attrs: inlinehint nounwind uwtable
define internal void @AddLength(ptr noundef %0, i32 noundef %1) #1 {
  %3 = alloca ptr, align 8
  %4 = alloca i32, align 4
  %5 = alloca i64, align 8
  store ptr %0, ptr %3, align 8, !tbaa !3
  store i32 %1, ptr %4, align 4, !tbaa !9
  call void @llvm.lifetime.start.p0(i64 8, ptr %5) #5
  %6 = load ptr, ptr %3, align 8, !tbaa !3
  %7 = getelementptr inbounds nuw %struct.wc_Sha512, ptr %6, i32 0, i32 3
  %8 = load i64, ptr %7, align 8, !tbaa !16
  store i64 %8, ptr %5, align 8, !tbaa !14
  %9 = load i32, ptr %4, align 4, !tbaa !9
  %10 = zext i32 %9 to i64
  %11 = load ptr, ptr %3, align 8, !tbaa !3
  %12 = getelementptr inbounds nuw %struct.wc_Sha512, ptr %11, i32 0, i32 3
  %13 = load i64, ptr %12, align 8, !tbaa !16
  %14 = add i64 %13, %10
  store i64 %14, ptr %12, align 8, !tbaa !16
  %15 = load i64, ptr %5, align 8, !tbaa !14
  %16 = icmp ult i64 %14, %15
  br i1 %16, label %17, label %22

17:                                               ; preds = %2
  %18 = load ptr, ptr %3, align 8, !tbaa !3
  %19 = getelementptr inbounds nuw %struct.wc_Sha512, ptr %18, i32 0, i32 4
  %20 = load i64, ptr %19, align 8, !tbaa !17
  %21 = add i64 %20, 1
  store i64 %21, ptr %19, align 8, !tbaa !17
  br label %22

22:                                               ; preds = %17, %2
  call void @llvm.lifetime.end.p0(i64 8, ptr %5) #5
  ret void
}

; Function Attrs: inlinehint nounwind uwtable
define internal i32 @Sha512Update(ptr noundef %0, ptr noundef %1, i32 noundef %2) #1 {
  %4 = alloca i32, align 4
  %5 = alloca ptr, align 8
  %6 = alloca ptr, align 8
  %7 = alloca i32, align 4
  %8 = alloca i32, align 4
  %9 = alloca ptr, align 8
  %10 = alloca i32, align 4
  %11 = alloca i32, align 4
  store ptr %0, ptr %5, align 8, !tbaa !3
  store ptr %1, ptr %6, align 8, !tbaa !18
  store i32 %2, ptr %7, align 4, !tbaa !9
  call void @llvm.lifetime.start.p0(i64 4, ptr %8) #5
  store i32 0, ptr %8, align 4, !tbaa !9
  call void @llvm.lifetime.start.p0(i64 8, ptr %9) #5
  %12 = load ptr, ptr %5, align 8, !tbaa !3
  %13 = getelementptr inbounds nuw %struct.wc_Sha512, ptr %12, i32 0, i32 1
  %14 = getelementptr inbounds [16 x i64], ptr %13, i64 0, i64 0
  store ptr %14, ptr %9, align 8, !tbaa !18
  %15 = load ptr, ptr %5, align 8, !tbaa !3
  %16 = getelementptr inbounds nuw %struct.wc_Sha512, ptr %15, i32 0, i32 2
  %17 = load i32, ptr %16, align 8, !tbaa !15
  %18 = icmp uge i32 %17, 128
  br i1 %18, label %19, label %20

19:                                               ; preds = %3
  store i32 -132, ptr %4, align 4
  store i32 1, ptr %10, align 4
  br label %123

20:                                               ; preds = %3
  %21 = load i32, ptr %7, align 4, !tbaa !9
  %22 = icmp eq i32 %21, 0
  br i1 %22, label %23, label %24

23:                                               ; preds = %20
  store i32 0, ptr %4, align 4
  store i32 1, ptr %10, align 4
  br label %123

24:                                               ; preds = %20
  %25 = load ptr, ptr %5, align 8, !tbaa !3
  %26 = load i32, ptr %7, align 4, !tbaa !9
  call void @AddLength(ptr noundef %25, i32 noundef %26)
  %27 = load ptr, ptr %5, align 8, !tbaa !3
  %28 = getelementptr inbounds nuw %struct.wc_Sha512, ptr %27, i32 0, i32 2
  %29 = load i32, ptr %28, align 8, !tbaa !15
  %30 = icmp ugt i32 %29, 0
  br i1 %30, label %31, label %84

31:                                               ; preds = %24
  call void @llvm.lifetime.start.p0(i64 4, ptr %11) #5
  %32 = load i32, ptr %7, align 4, !tbaa !9
  %33 = load ptr, ptr %5, align 8, !tbaa !3
  %34 = getelementptr inbounds nuw %struct.wc_Sha512, ptr %33, i32 0, i32 2
  %35 = load i32, ptr %34, align 8, !tbaa !15
  %36 = sub i32 128, %35
  %37 = call i32 @min(i32 noundef %32, i32 noundef %36)
  store i32 %37, ptr %11, align 4, !tbaa !9
  %38 = load i32, ptr %11, align 4, !tbaa !9
  %39 = icmp ugt i32 %38, 0
  br i1 %39, label %40, label %62

40:                                               ; preds = %31
  %41 = load ptr, ptr %9, align 8, !tbaa !18
  %42 = load ptr, ptr %5, align 8, !tbaa !3
  %43 = getelementptr inbounds nuw %struct.wc_Sha512, ptr %42, i32 0, i32 2
  %44 = load i32, ptr %43, align 8, !tbaa !15
  %45 = zext i32 %44 to i64
  %46 = getelementptr inbounds nuw i8, ptr %41, i64 %45
  %47 = load ptr, ptr %6, align 8, !tbaa !18
  %48 = load i32, ptr %11, align 4, !tbaa !9
  %49 = zext i32 %48 to i64
  call void @llvm.memcpy.p0.p0.i64(ptr align 1 %46, ptr align 1 %47, i64 %49, i1 false)
  %50 = load i32, ptr %11, align 4, !tbaa !9
  %51 = load ptr, ptr %5, align 8, !tbaa !3
  %52 = getelementptr inbounds nuw %struct.wc_Sha512, ptr %51, i32 0, i32 2
  %53 = load i32, ptr %52, align 8, !tbaa !15
  %54 = add i32 %53, %50
  store i32 %54, ptr %52, align 8, !tbaa !15
  %55 = load i32, ptr %11, align 4, !tbaa !9
  %56 = load ptr, ptr %6, align 8, !tbaa !18
  %57 = zext i32 %55 to i64
  %58 = getelementptr inbounds nuw i8, ptr %56, i64 %57
  store ptr %58, ptr %6, align 8, !tbaa !18
  %59 = load i32, ptr %11, align 4, !tbaa !9
  %60 = load i32, ptr %7, align 4, !tbaa !9
  %61 = sub i32 %60, %59
  store i32 %61, ptr %7, align 4, !tbaa !9
  br label %62

62:                                               ; preds = %40, %31
  %63 = load ptr, ptr %5, align 8, !tbaa !3
  %64 = getelementptr inbounds nuw %struct.wc_Sha512, ptr %63, i32 0, i32 2
  %65 = load i32, ptr %64, align 8, !tbaa !15
  %66 = icmp eq i32 %65, 128
  br i1 %66, label %67, label %83

67:                                               ; preds = %62
  %68 = load ptr, ptr %5, align 8, !tbaa !3
  %69 = getelementptr inbounds nuw %struct.wc_Sha512, ptr %68, i32 0, i32 1
  %70 = getelementptr inbounds [16 x i64], ptr %69, i64 0, i64 0
  %71 = load ptr, ptr %5, align 8, !tbaa !3
  %72 = getelementptr inbounds nuw %struct.wc_Sha512, ptr %71, i32 0, i32 1
  %73 = getelementptr inbounds [16 x i64], ptr %72, i64 0, i64 0
  call void @ByteReverseWords64(ptr noundef %70, ptr noundef %73, i32 noundef 128)
  %74 = load ptr, ptr %5, align 8, !tbaa !3
  %75 = call i32 @_Transform_Sha512(ptr noundef %74)
  store i32 %75, ptr %8, align 4, !tbaa !9
  %76 = load i32, ptr %8, align 4, !tbaa !9
  %77 = icmp eq i32 %76, 0
  br i1 %77, label %78, label %81

78:                                               ; preds = %67
  %79 = load ptr, ptr %5, align 8, !tbaa !3
  %80 = getelementptr inbounds nuw %struct.wc_Sha512, ptr %79, i32 0, i32 2
  store i32 0, ptr %80, align 8, !tbaa !15
  br label %82

81:                                               ; preds = %67
  store i32 0, ptr %7, align 4, !tbaa !9
  br label %82

82:                                               ; preds = %81, %78
  br label %83

83:                                               ; preds = %82, %62
  call void @llvm.lifetime.end.p0(i64 4, ptr %11) #5
  br label %84

84:                                               ; preds = %83, %24
  br label %85

85:                                               ; preds = %106, %84
  %86 = load i32, ptr %7, align 4, !tbaa !9
  %87 = icmp uge i32 %86, 128
  br i1 %87, label %88, label %107

88:                                               ; preds = %85
  %89 = load ptr, ptr %9, align 8, !tbaa !18
  %90 = load ptr, ptr %6, align 8, !tbaa !18
  call void @llvm.memcpy.p0.p0.i64(ptr align 1 %89, ptr align 1 %90, i64 128, i1 false)
  %91 = load ptr, ptr %6, align 8, !tbaa !18
  %92 = getelementptr inbounds i8, ptr %91, i64 128
  store ptr %92, ptr %6, align 8, !tbaa !18
  %93 = load i32, ptr %7, align 4, !tbaa !9
  %94 = sub i32 %93, 128
  store i32 %94, ptr %7, align 4, !tbaa !9
  %95 = load ptr, ptr %5, align 8, !tbaa !3
  %96 = getelementptr inbounds nuw %struct.wc_Sha512, ptr %95, i32 0, i32 1
  %97 = getelementptr inbounds [16 x i64], ptr %96, i64 0, i64 0
  %98 = load ptr, ptr %5, align 8, !tbaa !3
  %99 = getelementptr inbounds nuw %struct.wc_Sha512, ptr %98, i32 0, i32 1
  %100 = getelementptr inbounds [16 x i64], ptr %99, i64 0, i64 0
  call void @ByteReverseWords64(ptr noundef %97, ptr noundef %100, i32 noundef 128)
  %101 = load ptr, ptr %5, align 8, !tbaa !3
  %102 = call i32 @_Transform_Sha512(ptr noundef %101)
  store i32 %102, ptr %8, align 4, !tbaa !9
  %103 = load i32, ptr %8, align 4, !tbaa !9
  %104 = icmp ne i32 %103, 0
  br i1 %104, label %105, label %106

105:                                              ; preds = %88
  br label %107

106:                                              ; preds = %88
  br label %85, !llvm.loop !20

107:                                              ; preds = %105, %85
  %108 = load i32, ptr %8, align 4, !tbaa !9
  %109 = icmp eq i32 %108, 0
  br i1 %109, label %110, label %121

110:                                              ; preds = %107
  %111 = load i32, ptr %7, align 4, !tbaa !9
  %112 = icmp ugt i32 %111, 0
  br i1 %112, label %113, label %121

113:                                              ; preds = %110
  %114 = load ptr, ptr %9, align 8, !tbaa !18
  %115 = load ptr, ptr %6, align 8, !tbaa !18
  %116 = load i32, ptr %7, align 4, !tbaa !9
  %117 = zext i32 %116 to i64
  call void @llvm.memcpy.p0.p0.i64(ptr align 1 %114, ptr align 1 %115, i64 %117, i1 false)
  %118 = load i32, ptr %7, align 4, !tbaa !9
  %119 = load ptr, ptr %5, align 8, !tbaa !3
  %120 = getelementptr inbounds nuw %struct.wc_Sha512, ptr %119, i32 0, i32 2
  store i32 %118, ptr %120, align 8, !tbaa !15
  br label %121

121:                                              ; preds = %113, %110, %107
  %122 = load i32, ptr %8, align 4, !tbaa !9
  store i32 %122, ptr %4, align 4
  store i32 1, ptr %10, align 4
  br label %123

123:                                              ; preds = %121, %23, %19
  call void @llvm.lifetime.end.p0(i64 8, ptr %9) #5
  call void @llvm.lifetime.end.p0(i64 4, ptr %8) #5
  %124 = load i32, ptr %4, align 4
  ret i32 %124
}

; Function Attrs: nounwind uwtable
define i32 @wc_Sha512Update(ptr noundef %0, ptr noundef %1, i32 noundef %2) #0 {
  %4 = alloca i32, align 4
  %5 = alloca ptr, align 8
  %6 = alloca ptr, align 8
  %7 = alloca i32, align 4
  store ptr %0, ptr %5, align 8, !tbaa !3
  store ptr %1, ptr %6, align 8, !tbaa !18
  store i32 %2, ptr %7, align 4, !tbaa !9
  %8 = load ptr, ptr %5, align 8, !tbaa !3
  %9 = icmp eq ptr %8, null
  br i1 %9, label %10, label %11

10:                                               ; preds = %3
  store i32 -173, ptr %4, align 4
  br label %27

11:                                               ; preds = %3
  %12 = load ptr, ptr %6, align 8, !tbaa !18
  %13 = icmp eq ptr %12, null
  br i1 %13, label %14, label %18

14:                                               ; preds = %11
  %15 = load i32, ptr %7, align 4, !tbaa !9
  %16 = icmp eq i32 %15, 0
  br i1 %16, label %17, label %18

17:                                               ; preds = %14
  store i32 0, ptr %4, align 4
  br label %27

18:                                               ; preds = %14, %11
  %19 = load ptr, ptr %6, align 8, !tbaa !18
  %20 = icmp eq ptr %19, null
  br i1 %20, label %21, label %22

21:                                               ; preds = %18
  store i32 -173, ptr %4, align 4
  br label %27

22:                                               ; preds = %18
  %23 = load ptr, ptr %5, align 8, !tbaa !3
  %24 = load ptr, ptr %6, align 8, !tbaa !18
  %25 = load i32, ptr %7, align 4, !tbaa !9
  %26 = call i32 @Sha512Update(ptr noundef %23, ptr noundef %24, i32 noundef %25)
  store i32 %26, ptr %4, align 4
  br label %27

27:                                               ; preds = %22, %21, %17, %10
  %28 = load i32, ptr %4, align 4
  ret i32 %28
}