; Function Attrs: nofree norecurse nounwind memory(argmem: readwrite, inaccessiblemem: readwrite) uwtable
define range(i32 -173, 1) i32 @wc_Sha512Update(ptr noundef captures(address_is_null) %0, ptr noundef readonly captures(address_is_null) %1, i32 noundef %2) local_unnamed_addr #1 {
  %4 = icmp eq ptr %0, null
  br i1 %4, label %Sha512Update.exit, label %5

5:                                                ; preds = %3
  %6 = icmp eq ptr %1, null
  %7 = icmp eq i32 %2, 0
  %or.cond = and i1 %6, %7
  %.mux = select i1 %or.cond, i32 0, i32 -173
  br i1 %6, label %Sha512Update.exit, label %8

8:                                                ; preds = %5
  %9 = getelementptr inbounds nuw i8, ptr %0, i64 64
  %10 = getelementptr inbounds nuw i8, ptr %0, i64 192
  %11 = load i32, ptr %10, align 8, !tbaa !11
  %12 = icmp ugt i32 %11, 127
  %brmerge = or i1 %7, %12
  %.mux10 = select i1 %12, i32 -132, i32 0
  br i1 %brmerge, label %Sha512Update.exit, label %13

13:                                               ; preds = %8
  %14 = getelementptr inbounds nuw i8, ptr %0, i64 200
  %15 = load i64, ptr %14, align 8, !tbaa !12
  %16 = zext i32 %2 to i64
  %17 = add i64 %15, %16
  store i64 %17, ptr %14, align 8, !tbaa !12
  %18 = icmp ult i64 %17, %15
  br i1 %18, label %19, label %AddLength.exit.i

19:                                               ; preds = %13
  %20 = getelementptr inbounds nuw i8, ptr %0, i64 208
  %21 = load i64, ptr %20, align 8, !tbaa !13
  %22 = add i64 %21, 1
  store i64 %22, ptr %20, align 8, !tbaa !13
  br label %AddLength.exit.i

AddLength.exit.i:                                 ; preds = %19, %13
  %.not.i = icmp eq i32 %11, 0
  br i1 %.not.i, label %37, label %23

23:                                               ; preds = %AddLength.exit.i
  %24 = sub nuw nsw i32 128, %11
  %25 = tail call noundef i32 @llvm.umin.i32(i32 range(i32 1, 0) %2, i32 range(i32 129, 128) %24)
  %26 = zext nneg i32 %11 to i64
  %27 = getelementptr inbounds nuw i8, ptr %9, i64 %26
  %28 = zext nneg i32 %25 to i64
  tail call void @llvm.memcpy.p0.p0.i64(ptr nonnull align 1 %27, ptr nonnull readonly align 1 %1, i64 %28, i1 false)
  %29 = load i32, ptr %10, align 8, !tbaa !11
  %30 = add i32 %29, %25
  store i32 %30, ptr %10, align 8, !tbaa !11
  %31 = getelementptr inbounds nuw i8, ptr %1, i64 %28
  %32 = sub i32 %2, %25
  %33 = icmp eq i32 %30, 128
  br i1 %33, label %.lr.ph.i.i, label %37

.lr.ph.i.i:                                       ; preds = %23, %.lr.ph.i.i
  %indvars.iv.i.i = phi i64 [ %indvars.iv.next.i.i, %.lr.ph.i.i ], [ 0, %23 ]
  %34 = getelementptr inbounds nuw i64, ptr %9, i64 %indvars.iv.i.i
  %35 = load i64, ptr %34, align 8, !tbaa !10
  %36 = tail call noundef i64 @llvm.bswap.i64(i64 %35)
  store i64 %36, ptr %34, align 8, !tbaa !10
  %indvars.iv.next.i.i = add nuw nsw i64 %indvars.iv.i.i, 1
  %exitcond.not.i.i = icmp eq i64 %indvars.iv.next.i.i, 16
  br i1 %exitcond.not.i.i, label %ByteReverseWords64.exit.i, label %.lr.ph.i.i, !llvm.loop !14

ByteReverseWords64.exit.i:                        ; preds = %.lr.ph.i.i
  tail call fastcc void @_Transform_Sha512(ptr noundef nonnull %0)
  store i32 0, ptr %10, align 8, !tbaa !11
  br label %37

37:                                               ; preds = %ByteReverseWords64.exit.i, %23, %AddLength.exit.i
  %.050.i = phi i32 [ %2, %AddLength.exit.i ], [ %32, %ByteReverseWords64.exit.i ], [ %32, %23 ]
  %.046.i = phi ptr [ %1, %AddLength.exit.i ], [ %31, %ByteReverseWords64.exit.i ], [ %31, %23 ]
  %.old2.i = icmp ugt i32 %.050.i, 127
  br i1 %.old2.i, label %.preheader.i, label %.loopexit.i

.preheader.i:                                     ; preds = %37, %ByteReverseWords64.exit65.i
  %.353.i = phi i32 [ %42, %ByteReverseWords64.exit65.i ], [ %.050.i, %37 ]
  %.2.i = phi ptr [ %41, %ByteReverseWords64.exit65.i ], [ %.046.i, %37 ]
  tail call void @llvm.memcpy.p0.p0.i64(ptr noundef nonnull align 1 dereferenceable(128) %9, ptr noundef nonnull align 1 dereferenceable(128) %.2.i, i64 128, i1 false)
  br label %.lr.ph.i61.i

.lr.ph.i61.i:                                     ; preds = %.lr.ph.i61.i, %.preheader.i
  %indvars.iv.i62.i = phi i64 [ 0, %.preheader.i ], [ %indvars.iv.next.i63.i, %.lr.ph.i61.i ]
  %38 = getelementptr inbounds nuw i64, ptr %9, i64 %indvars.iv.i62.i
  %39 = load i64, ptr %38, align 8, !tbaa !10
  %40 = tail call noundef i64 @llvm.bswap.i64(i64 %39)
  store i64 %40, ptr %38, align 8, !tbaa !10
  %indvars.iv.next.i63.i = add nuw nsw i64 %indvars.iv.i62.i, 1
  %exitcond.not.i64.i = icmp eq i64 %indvars.iv.next.i63.i, 16
  br i1 %exitcond.not.i64.i, label %ByteReverseWords64.exit65.i, label %.lr.ph.i61.i, !llvm.loop !14

ByteReverseWords64.exit65.i:                      ; preds = %.lr.ph.i61.i
  %41 = getelementptr inbounds nuw i8, ptr %.2.i, i64 128
  %42 = add i32 %.353.i, -128
  tail call fastcc void @_Transform_Sha512(ptr noundef nonnull %0)
  %43 = icmp ugt i32 %42, 127
  br i1 %43, label %.preheader.i, label %.loopexit.i, !llvm.loop !16

.loopexit.i:                                      ; preds = %ByteReverseWords64.exit65.i, %37
  %.4.i = phi i32 [ %.050.i, %37 ], [ %42, %ByteReverseWords64.exit65.i ]
  %.3.i = phi ptr [ %.046.i, %37 ], [ %41, %ByteReverseWords64.exit65.i ]
  %.not60.i = icmp eq i32 %.4.i, 0
  br i1 %.not60.i, label %Sha512Update.exit, label %44

44:                                               ; preds = %.loopexit.i
  %45 = zext nneg i32 %.4.i to i64
  tail call void @llvm.memcpy.p0.p0.i64(ptr nonnull align 1 %9, ptr align 1 %.3.i, i64 %45, i1 false)
  store i32 %.4.i, ptr %10, align 8, !tbaa !11
  br label %Sha512Update.exit

Sha512Update.exit:                                ; preds = %8, %44, %.loopexit.i, %5, %3
  %.0 = phi i32 [ -173, %3 ], [ %.mux, %5 ], [ %.mux10, %8 ], [ 0, %44 ], [ 0, %.loopexit.i ]
  ret i32 %.0
}